(dp0
S'Cluster 2'
p1
(dp2
S'AP6'
p3
(lp4
I-64
aI7
aI42
aI2
aI83
asS'AP8'
p5
(lp6
I-44
aI3
aI46
aI2
aI43
asS'AP10'
p7
(lp8
I-50
aI6
aI37
aI2
aI63
asS'AP7'
p9
(lp10
I-32
aI11
aI45
aI2
aI89
assS'Cluster 1'
p11
(dp12
S'AP2'
p13
(lp14
I-70
aI35
aI31
aI1
aI51
asS'AP4'
p15
(lp16
I-31
aI34
aI35
aI1
aI74
asS'AP5'
p17
(lp18
I-57
aI28
aI36
aI1
aI48
ass.