(dp0
S'Cluster 5'
p1
(dp2
S'AP25'
p3
(lp4
I-58
aI18
aI38
aI5
aI50
asS'AP24'
p5
(lp6
I-49
aI13
aI49
aI5
aI28
asS'AP21'
p7
(lp8
I-59
aI14
aI43
aI5
aI51
asS'AP23'
p9
(lp10
I-58
aI4
aI38
aI5
aI89
asS'AP22'
p11
(lp12
I-43
aI11
aI37
aI5
aI52
assS'Cluster 4'
p13
(dp14
S'AP19'
p15
(lp16
I-50
aI28
aI28
aI4
aI74
asS'AP16'
p17
(lp18
I-40
aI25
aI42
aI4
aI34
asS'AP20'
p19
(lp20
I-50
aI42
aI42
aI4
aI67
assS'Cluster 3'
p21
(dp22
S'AP14'
p23
(lp24
I-67
aI43
aI38
aI3
aI44
asS'AP15'
p25
(lp26
I-31
aI42
aI40
aI3
aI45
asS'AP11'
p27
(lp28
I-64
aI38
aI40
aI3
aI73
asS'AP12'
p29
(lp30
I-44
aI56
aI44
aI3
aI43
asS'AP13'
p31
(lp32
I-64
aI46
aI40
aI3
aI44
assS'Cluster 2'
p33
(dp34
S'AP8'
p35
(lp36
I-70
aI77
aI48
aI2
aI99
asS'AP10'
p37
(lp38
I-32
aI78
aI48
aI2
aI88
asS'AP7'
p39
(lp40
I-47
aI77
aI35
aI2
aI66
assS'Cluster 1'
p41
(dp42
S'AP2'
p43
(lp44
I-43
aI88
aI42
aI1
aI96
asS'AP3'
p45
(lp46
I-51
aI98
aI47
aI1
aI31
asS'AP1'
p47
(lp48
I-62
aI92
aI45
aI1
aI31
ass.