(dp0
S'Cluster 5'
p1
(dp2
S'AP22'
p3
(lp4
I-43
aI11
aI37
aI5
aI52
assS'Cluster 4'
p5
(dp6
S'AP20'
p7
(lp8
I-50
aI42
aI42
aI4
aI67
assS'Cluster 3'
p9
(dp10
S'AP15'
p11
(lp12
I-31
aI42
aI40
aI3
aI45
assS'Cluster 2'
p13
(dp14
S'AP10'
p15
(lp16
I-32
aI78
aI48
aI2
aI88
assS'Cluster 1'
p17
(dp18
S'AP2'
p19
(lp20
I-43
aI88
aI42
aI1
aI96
ass.