(dp0
S'Cluster 5'
p1
(dp2
S'AP25'
p3
(lp4
I-37
aI19
aI35
aI5
aI84
asS'AP24'
p5
(lp6
I-45
aI8
aI44
aI5
aI73
asS'AP21'
p7
(lp8
I-49
aI12
aI45
aI5
aI61
asS'AP23'
p9
(lp10
I-64
aI18
aI40
aI5
aI24
asS'AP22'
p11
(lp12
I-51
aI9
aI40
aI5
aI34
assS'Cluster 4'
p13
(dp14
S'AP16'
p15
(lp16
I-38
aI34
aI48
aI4
aI31
asS'AP17'
p17
(lp18
I-47
aI30
aI44
aI4
aI72
asS'AP18'
p19
(lp20
I-50
aI32
aI50
aI4
aI65
asS'AP19'
p21
(lp22
I-64
aI25
aI32
aI4
aI85
asS'AP20'
p23
(lp24
I-36
aI30
aI31
aI4
aI99
assS'Cluster 3'
p25
(dp26
S'AP14'
p27
(lp28
I-37
aI60
aI45
aI3
aI23
asS'AP15'
p29
(lp30
I-42
aI49
aI31
aI3
aI79
asS'AP12'
p31
(lp32
I-53
aI40
aI36
aI3
aI81
asS'AP13'
p33
(lp34
I-55
aI50
aI40
aI3
aI95
assS'Cluster 2'
p35
(dp36
S'AP6'
p37
(lp38
I-47
aI73
aI38
aI2
aI76
asS'AP8'
p39
(lp40
I-34
aI66
aI49
aI2
aI87
asS'AP9'
p41
(lp42
I-37
aI65
aI31
aI2
aI60
asS'AP10'
p43
(lp44
I-41
aI75
aI36
aI2
aI52
assS'Cluster 1'
p45
(dp46
S'AP2'
p47
(lp48
I-59
aI96
aI42
aI1
aI41
asS'AP3'
p49
(lp50
I-31
aI89
aI41
aI1
aI95
asS'AP1'
p51
(lp52
I-64
aI92
aI37
aI1
aI40
asS'AP5'
p53
(lp54
I-70
aI87
aI42
aI1
aI58
ass.