(dp0
S'Cluster 5'
p1
(dp2
S'AP25'
p3
(lp4
I-70
aI16
aI38
aI5
aI49
asS'AP24'
p5
(lp6
I-37
aI14
aI40
aI5
aI78
asS'AP21'
p7
(lp8
I-70
aI12
aI38
aI5
aI59
asS'AP23'
p9
(lp10
I-65
aI16
aI44
aI5
aI44
asS'AP22'
p11
(lp12
I-65
aI10
aI42
aI5
aI32
assS'Cluster 4'
p13
(dp14
S'AP16'
p15
(lp16
I-56
aI32
aI42
aI4
aI44
asS'AP17'
p17
(lp18
I-56
aI36
aI44
aI4
aI38
asS'AP18'
p19
(lp20
I-52
aI36
aI46
aI4
aI53
asS'AP20'
p21
(lp22
I-30
aI38
aI36
aI4
aI39
assS'Cluster 3'
p23
(dp24
S'AP14'
p25
(lp26
I-70
aI48
aI46
aI3
aI90
asS'AP15'
p27
(lp28
I-31
aI50
aI48
aI3
aI48
asS'AP11'
p29
(lp30
I-56
aI48
aI40
aI3
aI41
asS'AP12'
p31
(lp32
I-45
aI42
aI38
aI3
aI100
asS'AP13'
p33
(lp34
I-56
aI52
aI40
aI3
aI43
assS'Cluster 2'
p35
(dp36
S'AP6'
p37
(lp38
I-33
aI74
aI48
aI2
aI37
asS'AP8'
p39
(lp40
I-50
aI64
aI34
aI2
aI95
asS'AP9'
p41
(lp42
I-37
aI66
aI34
aI2
aI63
asS'AP10'
p43
(lp44
I-45
aI66
aI38
aI2
aI24
asS'AP7'
p45
(lp46
I-47
aI72
aI36
aI2
aI63
assS'Cluster 1'
p47
(dp48
S'AP2'
p49
(lp50
I-65
aI82
aI42
aI1
aI96
asS'AP3'
p51
(lp52
I-36
aI86
aI40
aI1
aI66
asS'AP1'
p53
(lp54
I-65
aI90
aI38
aI1
aI35
asS'AP4'
p55
(lp56
I-52
aI96
aI38
aI1
aI79
asS'AP5'
p57
(lp58
I-70
aI88
aI38
aI1
aI30
ass.