(dp0
S'AP9'
p1
(lp2
I-37
aI66
aI35
aNaI98
asS'AP18'
p3
(lp4
I-58
aI29
aI43
aNaI55
asS'AP17'
p5
(lp6
I-46
aI23
aI29
aNaI22
asS'AP6'
p7
(lp8
I-50
aI72
aI30
aNaI35
asS'AP4'
p9
(lp10
I-40
aI92
aI30
aNaI20
asS'AP5'
p11
(lp12
I-58
aI94
aI38
aNaI51
as.